(dp1
S'dataset'
p2
S'ucf11'
p3
sS'optimizer'
p4
S'adam'
p5
sS'alpha_c'
p6
F0
sS'dictionary'
p7
NsS'batch_size'
p8
I50
sS'decay_c'
p9
F0.0001
sS'patience'
p10
I50
sS'n_layers_init'
p11
I1
sS'lrate'
p12
F0.001
sS'dim_out'
p13
I1024
sS'max_epochs'
p14
I10
sS'dispFreq'
p15
I10
sS'selector'
p16
I00
sS'ctx2out'
p17
I00
sS'n_actions'
p18
I11
sS'temperature_inverse'
p19
I1
sS'dim'
p20
I1024
sS'use_dropout'
p21
I01
sS'testing_stride'
p22
I10
sS'n_layers_out'
p23
I1
sS'n_layers_att'
p24
I1
sS'maxlen'
p25
I30
sS'saveto'
p26
S'model_ucf11.npz'
p27
sS'saveFreq'
p28
I100
sS'fps'
p29
I30
sS'ctx_dim'
p30
I1024
sS'valid_batch_size'
p31
I50
sS'reload_'
p32
I00
sS'training_stride'
p33
I10
sS'validFreq'
p34
I100
sS'last_n'
p35
I30
s.